target datalayout = "e-m:e-p270:32:32-p271:32:32-p272:64:64-i64:64-i128:128-f80:128-n8:16:32:64-S128"
target triple = "x86_64-pc-linux-gnu"

%struct.Hop_Man_t_ = type { ptr, ptr, ptr, ptr, %struct.Hop_Obj_t_, [6 x i32], i32, i32, ptr, i32, ptr, i32, i32, i32, ptr, ptr, ptr, i64, i64 }
%struct.Hop_Obj_t_ = type { %union.anon, %union.anon.0, ptr, ptr, i32, i32 }
%union.anon = type { ptr }
%union.anon.0 = type { ptr }
%struct.Vec_Ptr_t_ = type { i32, i32, ptr }

; Function Attrs: inlinehint nounwind uwtable
define internal ptr @Vec_PtrEntry(ptr noundef %0, i32 noundef %1) #2 {
  %3 = alloca ptr, align 8
  %4 = alloca i32, align 4
  store ptr %0, ptr %3, align 8, !tbaa !28
  store i32 %1, ptr %4, align 4, !tbaa !17
  %5 = load ptr, ptr %3, align 8, !tbaa !28
  %6 = getelementptr inbounds nuw %struct.Vec_Ptr_t_, ptr %5, i32 0, i32 2
  %7 = load ptr, ptr %6, align 8, !tbaa !31
  %8 = load i32, ptr %4, align 4, !tbaa !17
  %9 = sext i32 %8 to i64
  %10 = getelementptr inbounds ptr, ptr %7, i64 %9
  %11 = load ptr, ptr %10, align 8, !tbaa !32
  ret ptr %11
}

; Function Attrs: inlinehint nounwind uwtable
define internal i32 @Vec_PtrSize(ptr noundef %0) #2 {
  %2 = alloca ptr, align 8
  store ptr %0, ptr %2, align 8, !tbaa !28
  %3 = load ptr, ptr %2, align 8, !tbaa !28
  %4 = getelementptr inbounds nuw %struct.Vec_Ptr_t_, ptr %3, i32 0, i32 1
  %5 = load i32, ptr %4, align 4, !tbaa !29
  ret i32 %5
}

; Function Attrs: inlinehint nounwind uwtable
define internal ptr @Hop_ManConst1(ptr noundef %0) #2 {
  %2 = alloca ptr, align 8
  store ptr %0, ptr %2, align 8, !tbaa !3
  %3 = load ptr, ptr %2, align 8, !tbaa !3
  %4 = getelementptr inbounds nuw %struct.Hop_Man_t_, ptr %3, i32 0, i32 3
  %5 = load ptr, ptr %4, align 8, !tbaa !27
  ret ptr %5
}

; Function Attrs: nounwind uwtable
define void @Hop_ManCleanData(ptr noundef %0) #0 {
  %2 = alloca ptr, align 8
  %3 = alloca ptr, align 8
  %4 = alloca i32, align 4
  store ptr %0, ptr %2, align 8, !tbaa !3
  call void @llvm.lifetime.start.p0(i64 8, ptr %3) #7
  call void @llvm.lifetime.start.p0(i64 4, ptr %4) #7
  %5 = load ptr, ptr %2, align 8, !tbaa !3
  %6 = getelementptr inbounds nuw %struct.Hop_Man_t_, ptr %5, i32 0, i32 11
  store i32 1, ptr %6, align 8, !tbaa !8
  %7 = load ptr, ptr %2, align 8, !tbaa !3
  %8 = call ptr @Hop_ManConst1(ptr noundef %7)
  %9 = getelementptr inbounds nuw %struct.Hop_Obj_t_, ptr %8, i32 0, i32 0
  store ptr null, ptr %9, align 8, !tbaa !16
  store i32 0, ptr %4, align 4, !tbaa !17
  br label %10

10:                                               ; preds = %28, %1
  %11 = load i32, ptr %4, align 4, !tbaa !17
  %12 = load ptr, ptr %2, align 8, !tbaa !3
  %13 = getelementptr inbounds nuw %struct.Hop_Man_t_, ptr %12, i32 0, i32 0
  %14 = load ptr, ptr %13, align 8, !tbaa !18
  %15 = call i32 @Vec_PtrSize(ptr noundef %14)
  %16 = icmp slt i32 %11, %15
  br i1 %16, label %17, label %23

17:                                               ; preds = %10
  %18 = load ptr, ptr %2, align 8, !tbaa !3
  %19 = getelementptr inbounds nuw %struct.Hop_Man_t_, ptr %18, i32 0, i32 0
  %20 = load ptr, ptr %19, align 8, !tbaa !18
  %21 = load i32, ptr %4, align 4, !tbaa !17
  %22 = call ptr @Vec_PtrEntry(ptr noundef %20, i32 noundef %21)
  store ptr %22, ptr %3, align 8, !tbaa !19
  br label %23

23:                                               ; preds = %17, %10
  %24 = phi i1 [ false, %10 ], [ true, %17 ]
  br i1 %24, label %25, label %31

25:                                               ; preds = %23
  %26 = load ptr, ptr %3, align 8, !tbaa !19
  %27 = getelementptr inbounds nuw %struct.Hop_Obj_t_, ptr %26, i32 0, i32 0
  store ptr null, ptr %27, align 8, !tbaa !16
  br label %28

28:                                               ; preds = %25
  %29 = load i32, ptr %4, align 4, !tbaa !17
  %30 = add nsw i32 %29, 1
  store i32 %30, ptr %4, align 4, !tbaa !17
  br label %10, !llvm.loop !20

31:                                               ; preds = %23
  store i32 0, ptr %4, align 4, !tbaa !17
  br label %32

32:                                               ; preds = %50, %31
  %33 = load i32, ptr %4, align 4, !tbaa !17
  %34 = load ptr, ptr %2, align 8, !tbaa !3
  %35 = getelementptr inbounds nuw %struct.Hop_Man_t_, ptr %34, i32 0, i32 1
  %36 = load ptr, ptr %35, align 8, !tbaa !22
  %37 = call i32 @Vec_PtrSize(ptr noundef %36)
  %38 = icmp slt i32 %33, %37
  br i1 %38, label %39, label %45

39:                                               ; preds = %32
  %40 = load ptr, ptr %2, align 8, !tbaa !3
  %41 = getelementptr inbounds nuw %struct.Hop_Man_t_, ptr %40, i32 0, i32 1
  %42 = load ptr, ptr %41, align 8, !tbaa !22
  %43 = load i32, ptr %4, align 4, !tbaa !17
  %44 = call ptr @Vec_PtrEntry(ptr noundef %42, i32 noundef %43)
  store ptr %44, ptr %3, align 8, !tbaa !19
  br label %45

45:                                               ; preds = %39, %32
  %46 = phi i1 [ false, %32 ], [ true, %39 ]
  br i1 %46, label %47, label %53

47:                                               ; preds = %45
  %48 = load ptr, ptr %3, align 8, !tbaa !19
  %49 = getelementptr inbounds nuw %struct.Hop_Obj_t_, ptr %48, i32 0, i32 0
  store ptr null, ptr %49, align 8, !tbaa !16
  br label %50

50:                                               ; preds = %47
  %51 = load i32, ptr %4, align 4, !tbaa !17
  %52 = add nsw i32 %51, 1
  store i32 %52, ptr %4, align 4, !tbaa !17
  br label %32, !llvm.loop !23

53:                                               ; preds = %45
  store i32 0, ptr %4, align 4, !tbaa !17
  br label %54

54:                                               ; preds = %74, %53
  %55 = load i32, ptr %4, align 4, !tbaa !17
  %56 = load ptr, ptr %2, align 8, !tbaa !3
  %57 = getelementptr inbounds nuw %struct.Hop_Man_t_, ptr %56, i32 0, i32 9
  %58 = load i32, ptr %57, align 8, !tbaa !24
  %59 = icmp slt i32 %55, %58
  br i1 %59, label %60, label %77

60:                                               ; preds = %54
  %61 = load ptr, ptr %2, align 8, !tbaa !3
  %62 = getelementptr inbounds nuw %struct.Hop_Man_t_, ptr %61, i32 0, i32 8
  %63 = load ptr, ptr %62, align 8, !tbaa !25
  %64 = load i32, ptr %4, align 4, !tbaa !17
  %65 = sext i32 %64 to i64
  %66 = getelementptr inbounds ptr, ptr %63, i64 %65
  %67 = load ptr, ptr %66, align 8, !tbaa !19
  store ptr %67, ptr %3, align 8, !tbaa !19
  %68 = icmp eq ptr %67, null
  br i1 %68, label %69, label %70

69:                                               ; preds = %60
  br label %73

70:                                               ; preds = %60
  %71 = load ptr, ptr %3, align 8, !tbaa !19
  %72 = getelementptr inbounds nuw %struct.Hop_Obj_t_, ptr %71, i32 0, i32 0
  store ptr null, ptr %72, align 8, !tbaa !16
  br label %73

73:                                               ; preds = %70, %69
  br label %74

74:                                               ; preds = %73
  %75 = load i32, ptr %4, align 4, !tbaa !17
  %76 = add nsw i32 %75, 1
  store i32 %76, ptr %4, align 4, !tbaa !17
  br label %54, !llvm.loop !26

77:                                               ; preds = %54
  call void @llvm.lifetime.end.p0(i64 4, ptr %4) #7
  call void @llvm.lifetime.end.p0(i64 8, ptr %3) #7
  ret void
}