; Function Attrs: nofree norecurse nosync nounwind memory(readwrite, inaccessiblemem: none) uwtable
define void @Hop_ManCleanData(ptr noundef captures(none) initializes((128, 132)) %0) local_unnamed_addr #0 {
  %2 = getelementptr inbounds nuw i8, ptr %0, i64 128
  store i32 1, ptr %2, align 8, !tbaa !3
  %3 = getelementptr i8, ptr %0, i64 24
  %.val = load ptr, ptr %3, align 8, !tbaa !14
  store ptr null, ptr %.val, align 8, !tbaa !15
  %4 = load ptr, ptr %0, align 8, !tbaa !16
  %5 = getelementptr i8, ptr %4, i64 4
  %.val2226 = load i32, ptr %5, align 4, !tbaa !17
  %6 = icmp sgt i32 %.val2226, 0
  br i1 %6, label %.lr.ph, label %.critedge.preheader

.critedge.preheader:                              ; preds = %.lr.ph, %1
  %7 = getelementptr inbounds nuw i8, ptr %0, i64 8
  %8 = load ptr, ptr %7, align 8, !tbaa !19
  %9 = getelementptr i8, ptr %8, i64 4
  %.val2328 = load i32, ptr %9, align 4, !tbaa !17
  %10 = icmp sgt i32 %.val2328, 0
  br i1 %10, label %.critedge, label %.critedge2.preheader

.lr.ph:                                           ; preds = %1, %.lr.ph
  %indvars.iv = phi i64 [ %indvars.iv.next, %.lr.ph ], [ 0, %1 ]
  %11 = phi ptr [ %15, %.lr.ph ], [ %4, %1 ]
  %12 = getelementptr i8, ptr %11, i64 8
  %.val24 = load ptr, ptr %12, align 8, !tbaa !20
  %13 = getelementptr inbounds nuw ptr, ptr %.val24, i64 %indvars.iv
  %14 = load ptr, ptr %13, align 8, !tbaa !21
  store ptr null, ptr %14, align 8, !tbaa !15
  %indvars.iv.next = add nuw nsw i64 %indvars.iv, 1
  %15 = load ptr, ptr %0, align 8, !tbaa !16
  %16 = getelementptr i8, ptr %15, i64 4
  %.val22 = load i32, ptr %16, align 4, !tbaa !17
  %17 = sext i32 %.val22 to i64
  %18 = icmp slt i64 %indvars.iv.next, %17
  br i1 %18, label %.lr.ph, label %.critedge.preheader, !llvm.loop !22

.critedge2.preheader:                             ; preds = %.critedge, %.critedge.preheader
  %19 = getelementptr inbounds nuw i8, ptr %0, i64 112
  %20 = load i32, ptr %19, align 8, !tbaa !24
  %21 = icmp sgt i32 %20, 0
  br i1 %21, label %.lr.ph32, label %.critedge2._crit_edge

.lr.ph32:                                         ; preds = %.critedge2.preheader
  %22 = getelementptr inbounds nuw i8, ptr %0, i64 104
  br label %31

.critedge:                                        ; preds = %.critedge.preheader, %.critedge
  %indvars.iv35 = phi i64 [ %indvars.iv.next36, %.critedge ], [ 0, %.critedge.preheader ]
  %23 = phi ptr [ %27, %.critedge ], [ %8, %.critedge.preheader ]
  %24 = getelementptr i8, ptr %23, i64 8
  %.val25 = load ptr, ptr %24, align 8, !tbaa !20
  %25 = getelementptr inbounds nuw ptr, ptr %.val25, i64 %indvars.iv35
  %26 = load ptr, ptr %25, align 8, !tbaa !21
  store ptr null, ptr %26, align 8, !tbaa !15
  %indvars.iv.next36 = add nuw nsw i64 %indvars.iv35, 1
  %27 = load ptr, ptr %7, align 8, !tbaa !19
  %28 = getelementptr i8, ptr %27, i64 4
  %.val23 = load i32, ptr %28, align 4, !tbaa !17
  %29 = sext i32 %.val23 to i64
  %30 = icmp slt i64 %indvars.iv.next36, %29
  br i1 %30, label %.critedge, label %.critedge2.preheader, !llvm.loop !25

31:                                               ; preds = %.lr.ph32, %.critedge2
  %32 = phi i32 [ %20, %.lr.ph32 ], [ %38, %.critedge2 ]
  %indvars.iv38 = phi i64 [ 0, %.lr.ph32 ], [ %indvars.iv.next39, %.critedge2 ]
  %33 = load ptr, ptr %22, align 8, !tbaa !26
  %34 = getelementptr inbounds nuw ptr, ptr %33, i64 %indvars.iv38
  %35 = load ptr, ptr %34, align 8, !tbaa !27
  %36 = icmp eq ptr %35, null
  br i1 %36, label %.critedge2, label %37

37:                                               ; preds = %31
  store ptr null, ptr %35, align 8, !tbaa !15
  %.pre = load i32, ptr %19, align 8, !tbaa !24
  br label %.critedge2

.critedge2:                                       ; preds = %37, %31
  %38 = phi i32 [ %.pre, %37 ], [ %32, %31 ]
  %indvars.iv.next39 = add nuw nsw i64 %indvars.iv38, 1
  %39 = sext i32 %38 to i64
  %40 = icmp slt i64 %indvars.iv.next39, %39
  br i1 %40, label %31, label %.critedge2._crit_edge, !llvm.loop !28

.critedge2._crit_edge:                            ; preds = %.critedge2, %.critedge2.preheader
  ret void
}